target datalayout = "e-m:e-p270:32:32-p271:32:32-p272:64:64-i64:64-i128:128-f80:128-n8:16:32:64-S128"
target triple = "x86_64-pc-linux-gnu"

%struct.CVodeMemRec = type { double, ptr, ptr, i32, i32, i32, double, double, ptr, i32, ptr, ptr, i32, ptr, i32, i32, double, double, ptr, i32, i32, i32, ptr, ptr, ptr, i32, i32, ptr, ptr, ptr, i32, double, i32, i32, double, ptr, ptr, i32, ptr, ptr, i32, i32, i32, double, ptr, ptr, [13 x ptr], ptr, ptr, ptr, ptr, ptr, [13 x ptr], ptr, ptr, ptr, ptr, [13 x ptr], ptr, ptr, ptr, ptr, ptr, i32, [13 x ptr], ptr, ptr, ptr, ptr, ptr, i32, double, i32, i32, i32, i32, i32, double, double, double, double, double, double, double, double, [14 x double], [6 x double], [13 x double], double, double, double, double, double, double, double, double, double, double, double, i32, ptr, i32, i64, i32, i32, i32, i32, i32, double, double, double, i64, i64, i64, i64, i64, i64, i64, i64, i64, ptr, i64, i64, ptr, i64, i64, i64, i64, i64, i64, i32, i64, i64, i64, i64, i64, i64, double, double, double, ptr, ptr, ptr, ptr, ptr, i32, i32, i64, double, double, double, i32, double, i32, i32, i32, i32, i32, i32, i32, i32, i32, i32, i32, i32, i32, i32, i32, i32, ptr, ptr, ptr, i32, [6 x [4 x double]], i32, i64, ptr, i32, ptr, ptr, double, double, double, ptr, ptr, ptr, double, double, i32, i32, i64, ptr, i32, i32, ptr, i32 }
%struct.CVadjMemRec = type { double, double, i32, i32, double, ptr, i32, ptr, i32, ptr, i32, ptr, i64, ptr, i64, i32, ptr, ptr, ptr, ptr, i32, i32, i32, i32, [13 x ptr], [13 x ptr], [13 x double], ptr, ptr, i64 }
%struct.CVodeBMemRec = type { i32, double, ptr, i32, i32, ptr, ptr, ptr, ptr, ptr, ptr, ptr, ptr, ptr, double, ptr, ptr }
%struct.CVSpilsMemRecB = type { ptr, ptr, ptr, ptr, ptr, ptr, ptr }

@.str = private unnamed_addr constant [8 x i8] c"CVSPILS\00", align 1
@.str.42 = private unnamed_addr constant [25 x i8] c"Bad t for interpolation.\00", align 1
@.str.46 = private unnamed_addr constant [27 x i8] c"cvSpilsJacTimesVecBWrapper\00", align 1

; Function Attrs: nounwind uwtable
define internal i32 @cvSpilsJacTimesVecBWrapper(ptr noundef %0, ptr noundef %1, double noundef %2, ptr noundef %3, ptr noundef %4, ptr noundef %5, ptr noundef %6) #0 {
  %8 = alloca i32, align 4
  %9 = alloca ptr, align 8
  %10 = alloca ptr, align 8
  %11 = alloca double, align 8
  %12 = alloca ptr, align 8
  %13 = alloca ptr, align 8
  %14 = alloca ptr, align 8
  %15 = alloca ptr, align 8
  %16 = alloca ptr, align 8
  %17 = alloca ptr, align 8
  %18 = alloca ptr, align 8
  %19 = alloca ptr, align 8
  %20 = alloca i32, align 4
  %21 = alloca i32, align 4
  %22 = alloca i32, align 4
  store ptr %0, ptr %9, align 8, !tbaa !48
  store ptr %1, ptr %10, align 8, !tbaa !48
  store double %2, ptr %11, align 8, !tbaa !29
  store ptr %3, ptr %12, align 8, !tbaa !48
  store ptr %4, ptr %13, align 8, !tbaa !48
  store ptr %5, ptr %14, align 8, !tbaa !3
  store ptr %6, ptr %15, align 8, !tbaa !48
  call void @llvm.lifetime.start.p0(i64 8, ptr %16) #5
  call void @llvm.lifetime.start.p0(i64 8, ptr %17) #5
  call void @llvm.lifetime.start.p0(i64 8, ptr %18) #5
  call void @llvm.lifetime.start.p0(i64 8, ptr %19) #5
  call void @llvm.lifetime.start.p0(i64 4, ptr %20) #5
  call void @llvm.lifetime.start.p0(i64 4, ptr %21) #5
  %23 = load ptr, ptr %14, align 8, !tbaa !3
  store ptr %23, ptr %16, align 8, !tbaa !9
  %24 = load ptr, ptr %16, align 8, !tbaa !9
  %25 = getelementptr inbounds nuw %struct.CVodeMemRec, ptr %24, i32 0, i32 194
  %26 = load ptr, ptr %25, align 8, !tbaa !63
  store ptr %26, ptr %17, align 8, !tbaa !64
  %27 = load ptr, ptr %17, align 8, !tbaa !64
  %28 = getelementptr inbounds nuw %struct.CVadjMemRec, ptr %27, i32 0, i32 7
  %29 = load ptr, ptr %28, align 8, !tbaa !87
  store ptr %29, ptr %18, align 8, !tbaa !71
  %30 = load ptr, ptr %18, align 8, !tbaa !71
  %31 = getelementptr inbounds nuw %struct.CVodeBMemRec, ptr %30, i32 0, i32 10
  %32 = load ptr, ptr %31, align 8, !tbaa !81
  store ptr %32, ptr %19, align 8, !tbaa !82
  %33 = load ptr, ptr %17, align 8, !tbaa !64
  %34 = getelementptr inbounds nuw %struct.CVadjMemRec, ptr %33, i32 0, i32 19
  %35 = load ptr, ptr %34, align 8, !tbaa !88
  %36 = load ptr, ptr %16, align 8, !tbaa !9
  %37 = load double, ptr %11, align 8, !tbaa !29
  %38 = load ptr, ptr %17, align 8, !tbaa !64
  %39 = getelementptr inbounds nuw %struct.CVadjMemRec, ptr %38, i32 0, i32 27
  %40 = load ptr, ptr %39, align 8, !tbaa !89
  %41 = call i32 %35(ptr noundef %36, double noundef %37, ptr noundef %40, ptr noundef null)
  store i32 %41, ptr %21, align 4, !tbaa !7
  %42 = load i32, ptr %21, align 4, !tbaa !7
  %43 = icmp ne i32 %42, 0
  br i1 %43, label %44, label %46

44:                                               ; preds = %7
  %45 = load ptr, ptr %16, align 8, !tbaa !9
  call void (ptr, i32, ptr, ptr, ptr, ...) @cvProcessError(ptr noundef %45, i32 noundef -1, ptr noundef @.str, ptr noundef @.str.46, ptr noundef @.str.42)
  store i32 -1, ptr %8, align 4
  store i32 1, ptr %22, align 4
  br label %64

46:                                               ; preds = %7
  %47 = load ptr, ptr %19, align 8, !tbaa !82
  %48 = getelementptr inbounds nuw %struct.CVSpilsMemRecB, ptr %47, i32 0, i32 0
  %49 = load ptr, ptr %48, align 8, !tbaa !98
  %50 = load ptr, ptr %9, align 8, !tbaa !48
  %51 = load ptr, ptr %10, align 8, !tbaa !48
  %52 = load double, ptr %11, align 8, !tbaa !29
  %53 = load ptr, ptr %17, align 8, !tbaa !64
  %54 = getelementptr inbounds nuw %struct.CVadjMemRec, ptr %53, i32 0, i32 27
  %55 = load ptr, ptr %54, align 8, !tbaa !89
  %56 = load ptr, ptr %12, align 8, !tbaa !48
  %57 = load ptr, ptr %13, align 8, !tbaa !48
  %58 = load ptr, ptr %18, align 8, !tbaa !71
  %59 = getelementptr inbounds nuw %struct.CVodeBMemRec, ptr %58, i32 0, i32 9
  %60 = load ptr, ptr %59, align 8, !tbaa !90
  %61 = load ptr, ptr %15, align 8, !tbaa !48
  %62 = call i32 %49(ptr noundef %50, ptr noundef %51, double noundef %52, ptr noundef %55, ptr noundef %56, ptr noundef %57, ptr noundef %60, ptr noundef %61)
  store i32 %62, ptr %20, align 4, !tbaa !7
  %63 = load i32, ptr %20, align 4, !tbaa !7
  store i32 %63, ptr %8, align 4
  store i32 1, ptr %22, align 4
  br label %64

64:                                               ; preds = %46, %44
  call void @llvm.lifetime.end.p0(i64 4, ptr %21) #5
  call void @llvm.lifetime.end.p0(i64 4, ptr %20) #5
  call void @llvm.lifetime.end.p0(i64 8, ptr %19) #5
  call void @llvm.lifetime.end.p0(i64 8, ptr %18) #5
  call void @llvm.lifetime.end.p0(i64 8, ptr %17) #5
  call void @llvm.lifetime.end.p0(i64 8, ptr %16) #5
  %65 = load i32, ptr %8, align 4
  ret i32 %65
}