; Function Attrs: nounwind uwtable
define internal i32 @cvSpilsJacTimesVecBWrapper(ptr noundef %0, ptr noundef %1, double noundef %2, ptr noundef %3, ptr noundef %4, ptr noundef %5, ptr noundef %6) #0 {
  %8 = getelementptr inbounds nuw i8, ptr %5, i64 2192
  %9 = load ptr, ptr %8, align 8, !tbaa !52
  %10 = getelementptr inbounds nuw i8, ptr %9, i64 48
  %11 = load ptr, ptr %10, align 8, !tbaa !68
  %12 = getelementptr inbounds nuw i8, ptr %11, i64 72
  %13 = load ptr, ptr %12, align 8, !tbaa !64
  %14 = getelementptr inbounds nuw i8, ptr %9, i64 144
  %15 = load ptr, ptr %14, align 8, !tbaa !69
  %16 = getelementptr inbounds nuw i8, ptr %9, i64 480
  %17 = load ptr, ptr %16, align 8, !tbaa !70
  %18 = tail call i32 %15(ptr noundef %5, double noundef %2, ptr noundef %17, ptr noundef null) #5
  %.not = icmp eq i32 %18, 0
  br i1 %.not, label %20, label %19

19:                                               ; preds = %7
  tail call void (ptr, i32, ptr, ptr, ptr, ...) @cvProcessError(ptr noundef nonnull %5, i32 noundef -1, ptr noundef nonnull @.str, ptr noundef nonnull @.str.46, ptr noundef nonnull @.str.42) #5
  br label %26

20:                                               ; preds = %7
  %21 = load ptr, ptr %13, align 8, !tbaa !76
  %22 = load ptr, ptr %16, align 8, !tbaa !70
  %23 = getelementptr inbounds nuw i8, ptr %11, i64 64
  %24 = load ptr, ptr %23, align 8, !tbaa !71
  %25 = tail call i32 %21(ptr noundef %0, ptr noundef %1, double noundef %2, ptr noundef %22, ptr noundef %3, ptr noundef %4, ptr noundef %24, ptr noundef %6) #5
  br label %26

26:                                               ; preds = %20, %19
  %.0 = phi i32 [ -1, %19 ], [ %25, %20 ]
  ret i32 %.0
}